; Function Attrs: mustprogress nounwind uwtable
define void @_ZN32pxrInternal_v0_24__pxrReserved__16HdRenderDelegateC2Ev(ptr noundef nonnull align 8 dereferenceable(104) %0) unnamed_addr #5 align 2 {
  store ptr getelementptr inbounds inrange(-16, 376) (i8, ptr @_ZTVN32pxrInternal_v0_24__pxrReserved__16HdRenderDelegateE, i64 16), ptr %0, align 8
  %2 = getelementptr inbounds nuw i8, ptr %0, i64 8
  %3 = getelementptr inbounds i8, ptr %0, i64 40
  store i64 0, ptr %3, align 8
  %4 = getelementptr inbounds i8, ptr %0, i64 56
  store ptr %4, ptr %2, align 8
  %5 = getelementptr inbounds i8, ptr %0, i64 16
  store i64 1, ptr %5, align 8
  %6 = getelementptr inbounds i8, ptr %0, i64 24
  tail call void @llvm.memset.p0.i64(ptr noundef nonnull align 8 dereferenceable(16) %6, i8 0, i64 16, i1 false)
  store float 1.000000e+00, ptr %3, align 8
  %7 = getelementptr inbounds i8, ptr %0, i64 48
  tail call void @llvm.memset.p0.i64(ptr noundef nonnull align 8 dereferenceable(16) %7, i8 0, i64 16, i1 false)
  %8 = getelementptr inbounds nuw i8, ptr %0, i64 64
  store i32 1, ptr %8, align 8
  %9 = getelementptr inbounds nuw i8, ptr %0, i64 72
  tail call void @_ZNSt7__cxx1112basic_stringIcSt11char_traitsIcESaIcEEC1Ev(ptr noundef nonnull align 8 dereferenceable(32) %9) #22
  ret void
}